target datalayout = "e-m:e-p270:32:32-p271:32:32-p272:64:64-i64:64-i128:128-f80:128-n8:16:32:64-S128"
target triple = "x86_64-pc-linux-gnu"

@.str = private unnamed_addr constant [17 x i8] c"0123456789abcdef\00", align 1

; Function Attrs: nounwind uwtable
define hidden ptr @lj_strfmt_wptr(ptr noundef %0, ptr noundef %1) #0 {
  %3 = alloca ptr, align 8
  %4 = alloca ptr, align 8
  %5 = alloca ptr, align 8
  %6 = alloca i64, align 8
  %7 = alloca i32, align 4
  %8 = alloca i32, align 4
  %9 = alloca i32, align 4
  store ptr %0, ptr %4, align 8, !tbaa !13
  store ptr %1, ptr %5, align 8, !tbaa !22
  call void @llvm.lifetime.start.p0(i64 8, ptr %6) #10
  %10 = load ptr, ptr %5, align 8, !tbaa !22
  %11 = ptrtoint ptr %10 to i64
  store i64 %11, ptr %6, align 8, !tbaa !23
  call void @llvm.lifetime.start.p0(i64 4, ptr %7) #10
  call void @llvm.lifetime.start.p0(i64 4, ptr %8) #10
  store i32 18, ptr %8, align 4, !tbaa !17
  %12 = load i64, ptr %6, align 8, !tbaa !23
  %13 = icmp eq i64 %12, 0
  br i1 %13, label %14, label %24

14:                                               ; preds = %2
  %15 = load ptr, ptr %4, align 8, !tbaa !13
  %16 = getelementptr inbounds nuw i8, ptr %15, i32 1
  store ptr %16, ptr %4, align 8, !tbaa !13
  store i8 78, ptr %15, align 1, !tbaa !16
  %17 = load ptr, ptr %4, align 8, !tbaa !13
  %18 = getelementptr inbounds nuw i8, ptr %17, i32 1
  store ptr %18, ptr %4, align 8, !tbaa !13
  store i8 85, ptr %17, align 1, !tbaa !16
  %19 = load ptr, ptr %4, align 8, !tbaa !13
  %20 = getelementptr inbounds nuw i8, ptr %19, i32 1
  store ptr %20, ptr %4, align 8, !tbaa !13
  store i8 76, ptr %19, align 1, !tbaa !16
  %21 = load ptr, ptr %4, align 8, !tbaa !13
  %22 = getelementptr inbounds nuw i8, ptr %21, i32 1
  store ptr %22, ptr %4, align 8, !tbaa !13
  store i8 76, ptr %21, align 1, !tbaa !16
  %23 = load ptr, ptr %4, align 8, !tbaa !13
  store ptr %23, ptr %3, align 8
  store i32 1, ptr %9, align 4
  br label %69

24:                                               ; preds = %2
  %25 = load i64, ptr %6, align 8, !tbaa !23
  %26 = ashr i64 %25, 32
  %27 = icmp ne i64 %26, 0
  br i1 %27, label %28, label %37

28:                                               ; preds = %24
  %29 = load i64, ptr %6, align 8, !tbaa !23
  %30 = ashr i64 %29, 32
  %31 = trunc i64 %30 to i32
  %32 = call i32 @llvm.ctlz.i32(i32 %31, i1 true)
  %33 = xor i32 %32, 31
  %34 = lshr i32 %33, 3
  %35 = mul i32 2, %34
  %36 = add i32 2, %35
  br label %38

37:                                               ; preds = %24
  br label %38

38:                                               ; preds = %37, %28
  %39 = phi i32 [ %36, %28 ], [ 0, %37 ]
  %40 = add i32 10, %39
  store i32 %40, ptr %8, align 4, !tbaa !17
  %41 = load ptr, ptr %4, align 8, !tbaa !13
  %42 = getelementptr inbounds i8, ptr %41, i64 0
  store i8 48, ptr %42, align 1, !tbaa !16
  %43 = load ptr, ptr %4, align 8, !tbaa !13
  %44 = getelementptr inbounds i8, ptr %43, i64 1
  store i8 120, ptr %44, align 1, !tbaa !16
  %45 = load i32, ptr %8, align 4, !tbaa !17
  %46 = sub i32 %45, 1
  store i32 %46, ptr %7, align 4, !tbaa !17
  br label %47

47:                                               ; preds = %59, %38
  %48 = load i32, ptr %7, align 4, !tbaa !17
  %49 = icmp uge i32 %48, 2
  br i1 %49, label %50, label %64

50:                                               ; preds = %47
  %51 = load i64, ptr %6, align 8, !tbaa !23
  %52 = and i64 %51, 15
  %53 = getelementptr inbounds [17 x i8], ptr @.str, i64 0, i64 %52
  %54 = load i8, ptr %53, align 1, !tbaa !16
  %55 = load ptr, ptr %4, align 8, !tbaa !13
  %56 = load i32, ptr %7, align 4, !tbaa !17
  %57 = zext i32 %56 to i64
  %58 = getelementptr inbounds nuw i8, ptr %55, i64 %57
  store i8 %54, ptr %58, align 1, !tbaa !16
  br label %59

59:                                               ; preds = %50
  %60 = load i32, ptr %7, align 4, !tbaa !17
  %61 = add i32 %60, -1
  store i32 %61, ptr %7, align 4, !tbaa !17
  %62 = load i64, ptr %6, align 8, !tbaa !23
  %63 = ashr i64 %62, 4
  store i64 %63, ptr %6, align 8, !tbaa !23
  br label %47, !llvm.loop !25

64:                                               ; preds = %47
  %65 = load ptr, ptr %4, align 8, !tbaa !13
  %66 = load i32, ptr %8, align 4, !tbaa !17
  %67 = zext i32 %66 to i64
  %68 = getelementptr inbounds nuw i8, ptr %65, i64 %67
  store ptr %68, ptr %3, align 8
  store i32 1, ptr %9, align 4
  br label %69

69:                                               ; preds = %64, %14
  call void @llvm.lifetime.end.p0(i64 4, ptr %8) #10
  call void @llvm.lifetime.end.p0(i64 4, ptr %7) #10
  call void @llvm.lifetime.end.p0(i64 8, ptr %6) #10
  %70 = load ptr, ptr %3, align 8
  ret ptr %70
}