; Function Attrs: nofree norecurse nosync nounwind memory(argmem: write) uwtable
define hidden nonnull ptr @lj_strfmt_wptr(ptr noundef writeonly captures(ret: address, provenance) initializes((0, 2)) %0, ptr noundef %1) local_unnamed_addr #3 {
  %3 = ptrtoint ptr %1 to i64
  %4 = icmp eq ptr %1, null
  br i1 %4, label %5, label %10

5:                                                ; preds = %2
  %6 = getelementptr inbounds nuw i8, ptr %0, i64 1
  store i8 78, ptr %0, align 1, !tbaa !13
  %7 = getelementptr inbounds nuw i8, ptr %0, i64 2
  store i8 85, ptr %6, align 1, !tbaa !13
  %8 = getelementptr inbounds nuw i8, ptr %0, i64 3
  store i8 76, ptr %7, align 1, !tbaa !13
  %9 = getelementptr inbounds nuw i8, ptr %0, i64 4
  store i8 76, ptr %8, align 1, !tbaa !13
  br label %30

10:                                               ; preds = %2
  %.not = icmp ult ptr %1, inttoptr (i64 4294967296 to ptr)
  br i1 %.not, label %.lr.ph.preheader, label %11

11:                                               ; preds = %10
  %12 = lshr i64 %3, 32
  %13 = trunc nuw i64 %12 to i32
  %14 = tail call range(i32 0, 33) i32 @llvm.ctlz.i32(i32 %13, i1 true)
  %15 = lshr i32 %14, 2
  %16 = and i32 %15, 6
  %17 = xor i32 %16, 6
  %18 = add nuw nsw i32 %17, 12
  br label %.lr.ph.preheader

.lr.ph.preheader:                                 ; preds = %11, %10
  %19 = phi i32 [ %18, %11 ], [ 10, %10 ]
  store i8 48, ptr %0, align 1, !tbaa !13
  %20 = getelementptr inbounds nuw i8, ptr %0, i64 1
  store i8 120, ptr %20, align 1, !tbaa !13
  %.024 = add nsw i32 %19, -1
  %21 = zext nneg i32 %.024 to i64
  br label %.lr.ph

.lr.ph:                                           ; preds = %.lr.ph.preheader, %.lr.ph
  %indvars.iv = phi i64 [ %21, %.lr.ph.preheader ], [ %indvars.iv.next, %.lr.ph ]
  %.02025 = phi i64 [ %3, %.lr.ph.preheader ], [ %26, %.lr.ph ]
  %22 = and i64 %.02025, 15
  %23 = getelementptr inbounds nuw [17 x i8], ptr @.str, i64 0, i64 %22
  %24 = load i8, ptr %23, align 1, !tbaa !13
  %25 = getelementptr inbounds nuw i8, ptr %0, i64 %indvars.iv
  store i8 %24, ptr %25, align 1, !tbaa !13
  %26 = ashr i64 %.02025, 4
  %indvars.iv.next = add nsw i64 %indvars.iv, -1
  %27 = and i64 %indvars.iv.next, 4294967294
  %.not28 = icmp eq i64 %27, 0
  br i1 %.not28, label %._crit_edge, label %.lr.ph, !llvm.loop !19

._crit_edge:                                      ; preds = %.lr.ph
  %28 = zext nneg i32 %19 to i64
  %29 = getelementptr inbounds nuw i8, ptr %0, i64 %28
  br label %30

30:                                               ; preds = %._crit_edge, %5
  %.021 = phi ptr [ %9, %5 ], [ %29, %._crit_edge ]
  ret ptr %.021
}